; Function Attrs: mustprogress nofree norecurse nosync nounwind willreturn memory(argmem: write) uwtable
define dso_local void @_ZN4llvm3pdb15NativeRawSymbolC2ERNS0_13NativeSessionENS0_11PDB_SymTypeEj(ptr noundef nonnull writeonly align 8 captures(none) dereferenceable(24) initializes((0, 24)) %0, ptr noundef nonnull align 8 dereferenceable(584) %1, i32 noundef %2, i32 noundef %3) unnamed_addr #0 align 2 {
  store ptr getelementptr inbounds nuw inrange(-16, 1448) (i8, ptr @_ZTVN4llvm3pdb15NativeRawSymbolE, i64 16), ptr %0, align 8
  %5 = getelementptr inbounds nuw i8, ptr %0, i64 8
  store ptr %1, ptr %5, align 8
  %6 = getelementptr inbounds nuw i8, ptr %0, i64 16
  store i32 %2, ptr %6, align 8
  %7 = getelementptr inbounds nuw i8, ptr %0, i64 20
  store i32 %3, ptr %7, align 4
  ret void
}